; Function Attrs: mustprogress uwtable
define hidden void @_ZN19ctx_simplify_tacticC2ER11ast_managerPNS_10simplifierERK10params_ref(ptr noundef nonnull align 8 dereferenceable(32) initializes((0, 12), (16, 24)) %0, ptr noundef nonnull align 8 dereferenceable(976) %1, ptr noundef %2, ptr noundef nonnull align 8 dereferenceable(8) %3) unnamed_addr #3 align 2 personality ptr @__gxx_personality_v0 {
  %5 = getelementptr inbounds nuw i8, ptr %0, i64 8
  store i32 0, ptr %5, align 8, !tbaa !83
  store ptr getelementptr inbounds nuw inrange(-16, 192) (i8, ptr @_ZTV19ctx_simplify_tactic, i64 16), ptr %0, align 8, !tbaa !3
  %6 = getelementptr inbounds nuw i8, ptr %0, i64 16
  %7 = tail call noalias noundef ptr @_ZN6memory8allocateEm(i64 noundef 648)
  tail call void @_ZN19ctx_simplify_tactic3impC2ER11ast_managerPNS_10simplifierERK10params_ref(ptr noundef nonnull align 8 dereferenceable(641) %7, ptr noundef nonnull align 8 dereferenceable(976) %1, ptr noundef %2, ptr noundef nonnull align 8 dereferenceable(8) %3)
  store ptr %7, ptr %6, align 8, !tbaa !86
  %8 = getelementptr inbounds nuw i8, ptr %0, i64 24
  tail call void @_ZN10params_refC1ERKS_(ptr noundef nonnull align 8 dereferenceable(8) %8, ptr noundef nonnull align 8 dereferenceable(8) %3)
  ret void
}